; Function Attrs: nounwind uwtable
define dso_local noundef ptr @replace_nestloop_param_placeholdervar(ptr noundef captures(none) %0, ptr noundef %1) local_unnamed_addr #0 {
  %3 = getelementptr inbounds nuw i8, ptr %0, i64 656
  %4 = load ptr, ptr %3, align 8
  %.not = icmp eq ptr %4, null
  br i1 %.not, label %._crit_edge, label %.lr.ph

.lr.ph:                                           ; preds = %2
  %5 = getelementptr inbounds nuw i8, ptr %4, i64 4
  %6 = getelementptr inbounds nuw i8, ptr %4, i64 16
  %7 = load i32, ptr %5, align 4
  %8 = icmp sgt i32 %7, 0
  br i1 %8, label %.lr.ph45, label %._crit_edge

9:                                                ; preds = %.lr.ph45
  %indvars.iv.next = add nuw nsw i64 %indvars.iv, 1
  %10 = load i32, ptr %5, align 4
  %11 = sext i32 %10 to i64
  %12 = icmp slt i64 %indvars.iv.next, %11
  br i1 %12, label %.lr.ph45, label %._crit_edge

.lr.ph45:                                         ; preds = %.lr.ph, %9
  %indvars.iv = phi i64 [ %indvars.iv.next, %9 ], [ 0, %.lr.ph ]
  %13 = load ptr, ptr %6, align 8
  %14 = getelementptr inbounds nuw %union.ListCell, ptr %13, i64 %indvars.iv
  %15 = load ptr, ptr %14, align 8
  %16 = getelementptr inbounds nuw i8, ptr %15, i64 8
  %17 = load ptr, ptr %16, align 8
  %18 = tail call zeroext i1 @equal(ptr noundef %1, ptr noundef %17) #4
  br i1 %18, label %.split, label %9

.split:                                           ; preds = %.lr.ph45
  %19 = tail call noundef ptr @palloc0(i64 noundef 28) #4
  store i32 8, ptr %19, align 4
  %20 = getelementptr inbounds nuw i8, ptr %19, i64 4
  store i32 1, ptr %20, align 4
  %21 = getelementptr inbounds nuw i8, ptr %15, i64 4
  %22 = load i32, ptr %21, align 4
  %23 = getelementptr inbounds nuw i8, ptr %19, i64 8
  store i32 %22, ptr %23, align 4
  %24 = getelementptr inbounds nuw i8, ptr %1, i64 8
  %25 = load ptr, ptr %24, align 8
  %26 = tail call i32 @exprType(ptr noundef %25) #4
  %27 = getelementptr inbounds nuw i8, ptr %19, i64 12
  store i32 %26, ptr %27, align 4
  %28 = load ptr, ptr %24, align 8
  %29 = tail call i32 @exprTypmod(ptr noundef %28) #4
  %30 = getelementptr inbounds nuw i8, ptr %19, i64 16
  store i32 %29, ptr %30, align 4
  %31 = load ptr, ptr %24, align 8
  %32 = tail call i32 @exprCollation(ptr noundef %31) #4
  %33 = getelementptr inbounds nuw i8, ptr %19, i64 20
  store i32 %32, ptr %33, align 4
  %34 = getelementptr inbounds nuw i8, ptr %19, i64 24
  store i32 -1, ptr %34, align 4
  br label %70

._crit_edge:                                      ; preds = %9, %.lr.ph, %2
  %35 = getelementptr inbounds nuw i8, ptr %1, i64 8
  %36 = load ptr, ptr %35, align 8
  %37 = tail call i32 @exprType(ptr noundef %36) #4
  %38 = load ptr, ptr %35, align 8
  %39 = tail call i32 @exprTypmod(ptr noundef %38) #4
  %40 = load ptr, ptr %35, align 8
  %41 = tail call i32 @exprCollation(ptr noundef %40) #4
  %42 = tail call noundef ptr @palloc0(i64 noundef 28) #4
  store i32 8, ptr %42, align 4
  %43 = getelementptr inbounds nuw i8, ptr %42, i64 4
  store i32 1, ptr %43, align 4
  %44 = getelementptr inbounds nuw i8, ptr %0, i64 16
  %45 = load ptr, ptr %44, align 8
  %46 = getelementptr inbounds nuw i8, ptr %45, i64 128
  %47 = load ptr, ptr %46, align 8
  %.not.i.i = icmp eq ptr %47, null
  br i1 %.not.i.i, label %generate_new_exec_param.exit, label %48

48:                                               ; preds = %._crit_edge
  %49 = getelementptr inbounds nuw i8, ptr %47, i64 4
  %50 = load i32, ptr %49, align 4
  br label %generate_new_exec_param.exit

generate_new_exec_param.exit:                     ; preds = %._crit_edge, %48
  %51 = phi i32 [ %50, %48 ], [ 0, %._crit_edge ]
  %52 = getelementptr inbounds nuw i8, ptr %42, i64 8
  store i32 %51, ptr %52, align 4
  %53 = load ptr, ptr %44, align 8
  %54 = getelementptr inbounds nuw i8, ptr %53, i64 128
  %55 = load ptr, ptr %54, align 8
  %56 = tail call ptr @lappend_oid(ptr noundef %55, i32 noundef %37) #4
  %57 = load ptr, ptr %44, align 8
  %58 = getelementptr inbounds nuw i8, ptr %57, i64 128
  store ptr %56, ptr %58, align 8
  %59 = getelementptr inbounds nuw i8, ptr %42, i64 12
  store i32 %37, ptr %59, align 4
  %60 = getelementptr inbounds nuw i8, ptr %42, i64 16
  store i32 %39, ptr %60, align 4
  %61 = getelementptr inbounds nuw i8, ptr %42, i64 20
  store i32 %41, ptr %61, align 4
  %62 = getelementptr inbounds nuw i8, ptr %42, i64 24
  store i32 -1, ptr %62, align 4
  %63 = tail call noundef ptr @palloc0(i64 noundef 16) #4
  store i32 356, ptr %63, align 4
  %64 = load i32, ptr %52, align 4
  %65 = getelementptr inbounds nuw i8, ptr %63, i64 4
  store i32 %64, ptr %65, align 4
  %66 = tail call ptr @copyObjectImpl(ptr noundef nonnull %1) #4
  %67 = getelementptr inbounds nuw i8, ptr %63, i64 8
  store ptr %66, ptr %67, align 8
  %68 = load ptr, ptr %3, align 8
  %69 = tail call ptr @lappend(ptr noundef %68, ptr noundef nonnull %63) #4
  store ptr %69, ptr %3, align 8
  br label %70

70:                                               ; preds = %.split, %generate_new_exec_param.exit
  %.1 = phi ptr [ %42, %generate_new_exec_param.exit ], [ %19, %.split ]
  ret ptr %.1
}